; Function Attrs: mustprogress uwtable
define hidden void @_ZN6google8protobuf12FieldOptionsC2EPNS0_5ArenaEb(ptr noundef nonnull align 8 dereferenceable(88) initializes((0, 16)) %0, ptr noundef %1, i1 noundef zeroext %2) unnamed_addr #3 align 2 personality ptr @__gxx_personality_v0 {
  %4 = getelementptr inbounds nuw i8, ptr %0, i64 8
  %5 = ptrtoint ptr %1 to i64
  %6 = or i64 %5, 2
  %7 = select i1 %2, i64 %6, i64 %5
  store i64 %7, ptr %4, align 8, !tbaa !8
  store ptr getelementptr inbounds nuw inrange(-16, 152) (i8, ptr @_ZTVN6google8protobuf12FieldOptionsE, i64 16), ptr %0, align 8, !tbaa !11
  %8 = getelementptr inbounds nuw i8, ptr %0, i64 16
  invoke void @_ZN6google8protobuf8internal12ExtensionSetC1EPNS0_5ArenaE(ptr noundef nonnull align 8 dereferenceable(24) %8, ptr noundef %1)
          to label %.preheader.preheader unwind label %12

.preheader.preheader:                             ; preds = %3
  %.ptr = getelementptr inbounds nuw i8, ptr %0, i64 40
  store i32 0, ptr %.ptr, align 8, !tbaa !58
  %9 = getelementptr inbounds nuw i8, ptr %0, i64 44
  store i32 0, ptr %9, align 4, !tbaa !25
  %10 = getelementptr inbounds nuw i8, ptr %0, i64 48
  store ptr %1, ptr %10, align 8, !tbaa !13
  %11 = getelementptr inbounds nuw i8, ptr %0, i64 56
  tail call void @llvm.memset.p0.i64(ptr noundef nonnull align 8 dereferenceable(28) %11, i8 0, i64 28, i1 false)
  ret void

12:                                               ; preds = %3
  %13 = landingpad { ptr, i32 }
          cleanup
  tail call void @_ZN6google8protobuf11MessageLiteD2Ev(ptr noundef nonnull align 8 dereferenceable(16) %0) #24
  resume { ptr, i32 } %13
}